target datalayout = "e-m:e-p270:32:32-p271:32:32-p272:64:64-i64:64-i128:128-f80:128-n8:16:32:64-S128"
target triple = "x86_64-pc-linux-gnu"

%struct.yyguts_t = type { ptr, ptr, ptr, i64, i64, ptr, i8, i32, i32, ptr, i32, i32, i32, i32, i32, ptr, i32, ptr, i32, i32, ptr, i32, i32 }
%struct.yy_buffer_state = type { ptr, ptr, ptr, i32, i32, i32, i32, i32, i32, i32, i32, i32 }

@.str.6 = private unnamed_addr constant [35 x i8] c"yyset_lineno called with no buffer\00", align 1

; Function Attrs: nounwind uwtable
define dso_local void @GUC_yyset_lineno(i32 noundef %0, ptr noundef %1) #0 {
  %3 = alloca i32, align 4
  %4 = alloca ptr, align 8
  %5 = alloca ptr, align 8
  store i32 %0, ptr %3, align 4
  store ptr %1, ptr %4, align 8
  call void @llvm.lifetime.start.p0(i64 8, ptr %5) #15
  %6 = load ptr, ptr %4, align 8
  store ptr %6, ptr %5, align 8
  %7 = load ptr, ptr %5, align 8
  %8 = getelementptr inbounds nuw %struct.yyguts_t, ptr %7, i32 0, i32 5
  %9 = load ptr, ptr %8, align 8
  %10 = icmp ne ptr %9, null
  br i1 %10, label %11, label %21

11:                                               ; preds = %2
  %12 = load ptr, ptr %5, align 8
  %13 = getelementptr inbounds nuw %struct.yyguts_t, ptr %12, i32 0, i32 5
  %14 = load ptr, ptr %13, align 8
  %15 = load ptr, ptr %5, align 8
  %16 = getelementptr inbounds nuw %struct.yyguts_t, ptr %15, i32 0, i32 3
  %17 = load i64, ptr %16, align 8
  %18 = getelementptr inbounds nuw ptr, ptr %14, i64 %17
  %19 = load ptr, ptr %18, align 8
  %20 = icmp ne ptr %19, null
  br i1 %20, label %24, label %22

21:                                               ; preds = %2
  br i1 false, label %24, label %22

22:                                               ; preds = %21, %11
  %23 = load ptr, ptr %4, align 8
  call void @yy_fatal_error(ptr noundef @.str.6, ptr noundef %23) #16
  unreachable

24:                                               ; preds = %21, %11
  %25 = load i32, ptr %3, align 4
  %26 = load ptr, ptr %5, align 8
  %27 = getelementptr inbounds nuw %struct.yyguts_t, ptr %26, i32 0, i32 5
  %28 = load ptr, ptr %27, align 8
  %29 = load ptr, ptr %5, align 8
  %30 = getelementptr inbounds nuw %struct.yyguts_t, ptr %29, i32 0, i32 3
  %31 = load i64, ptr %30, align 8
  %32 = getelementptr inbounds nuw ptr, ptr %28, i64 %31
  %33 = load ptr, ptr %32, align 8
  %34 = getelementptr inbounds nuw %struct.yy_buffer_state, ptr %33, i32 0, i32 8
  store i32 %25, ptr %34, align 4
  call void @llvm.lifetime.end.p0(i64 8, ptr %5) #15
  ret void
}